; Function Attrs: nofree norecurse nosync nounwind memory(argmem: readwrite) uwtable
define internal void @HorizontalUnfilter_C(ptr noundef readonly %0, ptr nocapture noundef readonly %1, ptr nocapture noundef writeonly %2, i32 noundef %3) #3 {
  %5 = icmp eq ptr %0, null
  br i1 %5, label %8, label %6

6:                                                ; preds = %4
  %7 = load i8, ptr %0, align 1
  br label %8

8:                                                ; preds = %4, %6
  %9 = phi i8 [ %7, %6 ], [ 0, %4 ]
  %10 = icmp sgt i32 %3, 0
  br i1 %10, label %.lr.ph.preheader, label %._crit_edge

.lr.ph.preheader:                                 ; preds = %8
  %wide.trip.count = zext nneg i32 %3 to i64
  br label %.lr.ph

.lr.ph:                                           ; preds = %.lr.ph.preheader, %.lr.ph
  %indvars.iv = phi i64 [ 0, %.lr.ph.preheader ], [ %indvars.iv.next, %.lr.ph ]
  %.01113 = phi i8 [ %9, %.lr.ph.preheader ], [ %13, %.lr.ph ]
  %11 = getelementptr inbounds i8, ptr %1, i64 %indvars.iv
  %12 = load i8, ptr %11, align 1
  %13 = add i8 %12, %.01113
  %14 = getelementptr inbounds i8, ptr %2, i64 %indvars.iv
  store i8 %13, ptr %14, align 1
  %indvars.iv.next = add nuw nsw i64 %indvars.iv, 1
  %exitcond.not = icmp eq i64 %indvars.iv.next, %wide.trip.count
  br i1 %exitcond.not, label %._crit_edge, label %.lr.ph, !llvm.loop !4

._crit_edge:                                      ; preds = %.lr.ph, %8
  ret void
}